; Function Attrs: mustprogress uwtable
define void @_ZNK5ZXing4OneD11EAN13Writer6encodeERKNSt7__cxx1112basic_stringIcSt11char_traitsIcESaIcEEEii(ptr dead_on_unwind noalias writable sret(%"class.ZXing::BitMatrix") align 8 %0, ptr nocapture noundef nonnull readonly align 4 dereferenceable(4) %1, ptr noundef nonnull align 8 dereferenceable(32) %2, i32 noundef %3, i32 noundef %4) local_unnamed_addr #0 align 2 personality ptr @__gxx_personality_v0 {
  %6 = alloca %"class.std::__cxx11::basic_string", align 8
  %7 = tail call { i64, ptr } @_ZNKSt7__cxx1112basic_stringIcSt11char_traitsIcESaIcEEcvSt17basic_string_viewIcS2_EEv(ptr noundef nonnull align 8 dereferenceable(32) %2) #12
  %8 = extractvalue { i64, ptr } %7, 0
  %9 = extractvalue { i64, ptr } %7, 1
  call void @_ZN5ZXing8FromUtf8B5cxx11ESt17basic_string_viewIcSt11char_traitsIcEE(ptr dead_on_unwind nonnull writable sret(%"class.std::__cxx11::basic_string") align 8 %6, i64 %8, ptr %9)
  invoke void @_ZNK5ZXing4OneD11EAN13Writer6encodeERKNSt7__cxx1112basic_stringIwSt11char_traitsIwESaIwEEEii(ptr dead_on_unwind writable sret(%"class.ZXing::BitMatrix") align 8 %0, ptr noundef nonnull align 4 dereferenceable(4) %1, ptr noundef nonnull align 8 dereferenceable(32) %6, i32 noundef %3, i32 noundef %4)
          to label %10 unwind label %11

10:                                               ; preds = %5
  call void @_ZNSt7__cxx1112basic_stringIwSt11char_traitsIwESaIwEED1Ev(ptr noundef nonnull align 8 dereferenceable(32) %6) #12
  ret void

11:                                               ; preds = %5
  %12 = landingpad { ptr, i32 }
          cleanup
  call void @_ZNSt7__cxx1112basic_stringIwSt11char_traitsIwESaIwEED1Ev(ptr noundef nonnull align 8 dereferenceable(32) %6) #12
  resume { ptr, i32 } %12
}